target datalayout = "e-m:e-p270:32:32-p271:32:32-p272:64:64-i64:64-i128:128-f80:128-n8:16:32:64-S128"
target triple = "x86_64-pc-linux-gnu"

%struct.event_signal_map = type { ptr, i32 }
%struct.event_base = type { ptr, ptr, %struct.event_changelist, ptr, %struct.evsig_info, i32, i32, i32, i32, i32, i32, i32, i32, i32, i32, i32, i32, ptr, i32, %struct.evcallback_list, ptr, i32, i32, %struct.event_signal_map, %struct.event_signal_map, %struct.min_heap, %struct.timeval, %struct.evutil_monotonic_timer, %struct.timeval, i64, i64, ptr, ptr, i32, ptr, i32, %struct.timeval, i32, i32, i32, [2 x i32], %struct.event, ptr, %struct.evutil_weakrand_state, %struct.once_event_list, [2 x %struct.evwatch_list] }
%struct.event_changelist = type { ptr, i32, i32 }
%struct.evsig_info = type { %struct.event, [2 x i32], i32, i32, [65 x ptr], ptr, i32 }
%struct.evcallback_list = type { ptr, ptr }
%struct.min_heap = type { ptr, i64, i64 }
%struct.evutil_monotonic_timer = type { i32, %struct.timeval, %struct.timeval }
%struct.timeval = type { i64, i64 }
%struct.event = type { %struct.event_callback, %union.anon.0, i32, i16, i16, ptr, %union.anon.2, %struct.timeval }
%struct.event_callback = type { %struct.anon, i16, i8, i8, %union.anon, ptr }
%struct.anon = type { ptr, ptr }
%union.anon = type { ptr }
%union.anon.0 = type { %struct.anon.1 }
%struct.anon.1 = type { ptr, ptr }
%union.anon.2 = type { %struct.anon.3 }
%struct.anon.3 = type { %struct.anon.4, %struct.timeval }
%struct.anon.4 = type { ptr, ptr }
%struct.evutil_weakrand_state = type { i32 }
%struct.once_event_list = type { ptr }
%struct.evwatch_list = type { ptr, ptr }
%struct.event_change = type { i32, i16, i8, i8, i8 }
%struct.event_changelist_fdinfo = type { i32 }

; Function Attrs: nounwind uwtable
define internal i32 @event_changelist_grow(ptr noundef %0) #0 {
  %2 = alloca i32, align 4
  %3 = alloca ptr, align 8
  %4 = alloca i32, align 4
  %5 = alloca ptr, align 8
  %6 = alloca i32, align 4
  store ptr %0, ptr %3, align 8
  call void @llvm.lifetime.start.p0(i64 4, ptr %4) #6
  call void @llvm.lifetime.start.p0(i64 8, ptr %5) #6
  %7 = load ptr, ptr %3, align 8
  %8 = getelementptr inbounds nuw %struct.event_changelist, ptr %7, i32 0, i32 2
  %9 = load i32, ptr %8, align 4
  %10 = icmp slt i32 %9, 64
  br i1 %10, label %11, label %12

11:                                               ; preds = %1
  store i32 64, ptr %4, align 4
  br label %17

12:                                               ; preds = %1
  %13 = load ptr, ptr %3, align 8
  %14 = getelementptr inbounds nuw %struct.event_changelist, ptr %13, i32 0, i32 2
  %15 = load i32, ptr %14, align 4
  %16 = mul nsw i32 %15, 2
  store i32 %16, ptr %4, align 4
  br label %17

17:                                               ; preds = %12, %11
  %18 = load ptr, ptr %3, align 8
  %19 = getelementptr inbounds nuw %struct.event_changelist, ptr %18, i32 0, i32 0
  %20 = load ptr, ptr %19, align 8
  %21 = load i32, ptr %4, align 4
  %22 = sext i32 %21 to i64
  %23 = mul i64 %22, 12
  %24 = call ptr @event_mm_realloc_(ptr noundef %20, i64 noundef %23)
  store ptr %24, ptr %5, align 8
  %25 = load ptr, ptr %5, align 8
  %26 = icmp eq ptr %25, null
  %27 = xor i1 %26, true
  %28 = xor i1 %27, true
  %29 = zext i1 %28 to i32
  %30 = sext i32 %29 to i64
  %31 = call i64 @llvm.expect.i64(i64 %30, i64 0)
  %32 = icmp ne i64 %31, 0
  br i1 %32, label %33, label %34

33:                                               ; preds = %17
  store i32 -1, ptr %2, align 4
  store i32 1, ptr %6, align 4
  br label %41

34:                                               ; preds = %17
  %35 = load ptr, ptr %5, align 8
  %36 = load ptr, ptr %3, align 8
  %37 = getelementptr inbounds nuw %struct.event_changelist, ptr %36, i32 0, i32 0
  store ptr %35, ptr %37, align 8
  %38 = load i32, ptr %4, align 4
  %39 = load ptr, ptr %3, align 8
  %40 = getelementptr inbounds nuw %struct.event_changelist, ptr %39, i32 0, i32 2
  store i32 %38, ptr %40, align 4
  store i32 0, ptr %2, align 4
  store i32 1, ptr %6, align 4
  br label %41

41:                                               ; preds = %34, %33
  call void @llvm.lifetime.end.p0(i64 8, ptr %5) #6
  call void @llvm.lifetime.end.p0(i64 4, ptr %4) #6
  %42 = load i32, ptr %2, align 4
  ret i32 %42
}

; Function Attrs: nounwind uwtable
define internal ptr @event_changelist_get_or_construct(ptr noundef %0, i32 noundef %1, i16 noundef signext %2, ptr noundef %3) #0 {
  %5 = alloca ptr, align 8
  %6 = alloca ptr, align 8
  %7 = alloca i32, align 4
  %8 = alloca i16, align 2
  %9 = alloca ptr, align 8
  %10 = alloca ptr, align 8
  %11 = alloca i32, align 4
  %12 = alloca i32, align 4
  store ptr %0, ptr %6, align 8
  store i32 %1, ptr %7, align 4
  store i16 %2, ptr %8, align 2
  store ptr %3, ptr %9, align 8
  call void @llvm.lifetime.start.p0(i64 8, ptr %10) #6
  %13 = load ptr, ptr %9, align 8
  %14 = getelementptr inbounds nuw %struct.event_changelist_fdinfo, ptr %13, i32 0, i32 0
  %15 = load i32, ptr %14, align 4
  %16 = icmp eq i32 %15, 0
  br i1 %16, label %17, label %59

17:                                               ; preds = %4
  call void @llvm.lifetime.start.p0(i64 4, ptr %11) #6
  br label %18

18:                                               ; preds = %17
  br label %19

19:                                               ; preds = %18
  br label %20

20:                                               ; preds = %19
  %21 = load ptr, ptr %6, align 8
  %22 = getelementptr inbounds nuw %struct.event_changelist, ptr %21, i32 0, i32 1
  %23 = load i32, ptr %22, align 8
  %24 = load ptr, ptr %6, align 8
  %25 = getelementptr inbounds nuw %struct.event_changelist, ptr %24, i32 0, i32 2
  %26 = load i32, ptr %25, align 4
  %27 = icmp eq i32 %23, %26
  br i1 %27, label %28, label %34

28:                                               ; preds = %20
  %29 = load ptr, ptr %6, align 8
  %30 = call i32 @event_changelist_grow(ptr noundef %29)
  %31 = icmp slt i32 %30, 0
  br i1 %31, label %32, label %33

32:                                               ; preds = %28
  store ptr null, ptr %5, align 8
  store i32 1, ptr %12, align 4
  br label %56

33:                                               ; preds = %28
  br label %34

34:                                               ; preds = %33, %20
  %35 = load ptr, ptr %6, align 8
  %36 = getelementptr inbounds nuw %struct.event_changelist, ptr %35, i32 0, i32 1
  %37 = load i32, ptr %36, align 8
  %38 = add nsw i32 %37, 1
  store i32 %38, ptr %36, align 8
  store i32 %37, ptr %11, align 4
  %39 = load ptr, ptr %6, align 8
  %40 = getelementptr inbounds nuw %struct.event_changelist, ptr %39, i32 0, i32 0
  %41 = load ptr, ptr %40, align 8
  %42 = load i32, ptr %11, align 4
  %43 = sext i32 %42 to i64
  %44 = getelementptr inbounds %struct.event_change, ptr %41, i64 %43
  store ptr %44, ptr %10, align 8
  %45 = load i32, ptr %11, align 4
  %46 = add nsw i32 %45, 1
  %47 = load ptr, ptr %9, align 8
  %48 = getelementptr inbounds nuw %struct.event_changelist_fdinfo, ptr %47, i32 0, i32 0
  store i32 %46, ptr %48, align 4
  %49 = load ptr, ptr %10, align 8
  call void @llvm.memset.p0.i64(ptr align 4 %49, i8 0, i64 12, i1 false)
  %50 = load i32, ptr %7, align 4
  %51 = load ptr, ptr %10, align 8
  %52 = getelementptr inbounds nuw %struct.event_change, ptr %51, i32 0, i32 0
  store i32 %50, ptr %52, align 4
  %53 = load i16, ptr %8, align 2
  %54 = load ptr, ptr %10, align 8
  %55 = getelementptr inbounds nuw %struct.event_change, ptr %54, i32 0, i32 1
  store i16 %53, ptr %55, align 4
  store i32 0, ptr %12, align 4
  br label %56

56:                                               ; preds = %34, %32
  call void @llvm.lifetime.end.p0(i64 4, ptr %11) #6
  %57 = load i32, ptr %12, align 4
  switch i32 %57, label %74 [
    i32 0, label %58
  ]

58:                                               ; preds = %56
  br label %72

59:                                               ; preds = %4
  %60 = load ptr, ptr %6, align 8
  %61 = getelementptr inbounds nuw %struct.event_changelist, ptr %60, i32 0, i32 0
  %62 = load ptr, ptr %61, align 8
  %63 = load ptr, ptr %9, align 8
  %64 = getelementptr inbounds nuw %struct.event_changelist_fdinfo, ptr %63, i32 0, i32 0
  %65 = load i32, ptr %64, align 4
  %66 = sub nsw i32 %65, 1
  %67 = sext i32 %66 to i64
  %68 = getelementptr inbounds %struct.event_change, ptr %62, i64 %67
  store ptr %68, ptr %10, align 8
  br label %69

69:                                               ; preds = %59
  br label %70

70:                                               ; preds = %69
  br label %71

71:                                               ; preds = %70
  br label %72

72:                                               ; preds = %71, %58
  %73 = load ptr, ptr %10, align 8
  store ptr %73, ptr %5, align 8
  store i32 1, ptr %12, align 4
  br label %74

74:                                               ; preds = %72, %56
  call void @llvm.lifetime.end.p0(i64 8, ptr %10) #6
  %75 = load ptr, ptr %5, align 8
  ret ptr %75
}

; Function Attrs: nounwind uwtable
define hidden i32 @event_changelist_add_(ptr noundef %0, i32 noundef %1, i16 noundef signext %2, i16 noundef signext %3, ptr noundef %4) #0 {
  %6 = alloca i32, align 4
  %7 = alloca ptr, align 8
  %8 = alloca i32, align 4
  %9 = alloca i16, align 2
  %10 = alloca i16, align 2
  %11 = alloca ptr, align 8
  %12 = alloca ptr, align 8
  %13 = alloca ptr, align 8
  %14 = alloca ptr, align 8
  %15 = alloca i8, align 1
  %16 = alloca i32, align 4
  store ptr %0, ptr %7, align 8
  store i32 %1, ptr %8, align 4
  store i16 %2, ptr %9, align 2
  store i16 %3, ptr %10, align 2
  store ptr %4, ptr %11, align 8
  call void @llvm.lifetime.start.p0(i64 8, ptr %12) #6
  %17 = load ptr, ptr %7, align 8
  %18 = getelementptr inbounds nuw %struct.event_base, ptr %17, i32 0, i32 2
  store ptr %18, ptr %12, align 8
  call void @llvm.lifetime.start.p0(i64 8, ptr %13) #6
  %19 = load ptr, ptr %11, align 8
  store ptr %19, ptr %13, align 8
  call void @llvm.lifetime.start.p0(i64 8, ptr %14) #6
  call void @llvm.lifetime.start.p0(i64 1, ptr %15) #6
  %20 = load i16, ptr %10, align 2
  %21 = sext i16 %20 to i32
  %22 = and i32 %21, 56
  %23 = or i32 1, %22
  %24 = trunc i32 %23 to i8
  store i8 %24, ptr %15, align 1
  %25 = load ptr, ptr %12, align 8
  %26 = load i32, ptr %8, align 4
  %27 = load i16, ptr %9, align 2
  %28 = load ptr, ptr %13, align 8
  %29 = call ptr @event_changelist_get_or_construct(ptr noundef %25, i32 noundef %26, i16 noundef signext %27, ptr noundef %28)
  store ptr %29, ptr %14, align 8
  %30 = load ptr, ptr %14, align 8
  %31 = icmp ne ptr %30, null
  br i1 %31, label %33, label %32

32:                                               ; preds = %5
  store i32 -1, ptr %6, align 4
  store i32 1, ptr %16, align 4
  br label %61

33:                                               ; preds = %5
  %34 = load i16, ptr %10, align 2
  %35 = sext i16 %34 to i32
  %36 = and i32 %35, 10
  %37 = icmp ne i32 %36, 0
  br i1 %37, label %38, label %42

38:                                               ; preds = %33
  %39 = load i8, ptr %15, align 1
  %40 = load ptr, ptr %14, align 8
  %41 = getelementptr inbounds nuw %struct.event_change, ptr %40, i32 0, i32 2
  store i8 %39, ptr %41, align 2
  br label %42

42:                                               ; preds = %38, %33
  %43 = load i16, ptr %10, align 2
  %44 = sext i16 %43 to i32
  %45 = and i32 %44, 4
  %46 = icmp ne i32 %45, 0
  br i1 %46, label %47, label %51

47:                                               ; preds = %42
  %48 = load i8, ptr %15, align 1
  %49 = load ptr, ptr %14, align 8
  %50 = getelementptr inbounds nuw %struct.event_change, ptr %49, i32 0, i32 3
  store i8 %48, ptr %50, align 1
  br label %51

51:                                               ; preds = %47, %42
  %52 = load i16, ptr %10, align 2
  %53 = sext i16 %52 to i32
  %54 = and i32 %53, 128
  %55 = icmp ne i32 %54, 0
  br i1 %55, label %56, label %60

56:                                               ; preds = %51
  %57 = load i8, ptr %15, align 1
  %58 = load ptr, ptr %14, align 8
  %59 = getelementptr inbounds nuw %struct.event_change, ptr %58, i32 0, i32 4
  store i8 %57, ptr %59, align 4
  br label %60

60:                                               ; preds = %56, %51
  store i32 0, ptr %6, align 4
  store i32 1, ptr %16, align 4
  br label %61

61:                                               ; preds = %60, %32
  call void @llvm.lifetime.end.p0(i64 1, ptr %15) #6
  call void @llvm.lifetime.end.p0(i64 8, ptr %14) #6
  call void @llvm.lifetime.end.p0(i64 8, ptr %13) #6
  call void @llvm.lifetime.end.p0(i64 8, ptr %12) #6
  %62 = load i32, ptr %6, align 4
  ret i32 %62
}