; Function Attrs: nounwind uwtable
define hidden range(i32 -1, 1) i32 @event_changelist_add_(ptr noundef captures(none) %0, i32 noundef %1, i16 noundef signext %2, i16 noundef signext %3, ptr noundef captures(none) %4) local_unnamed_addr #1 {
  %6 = getelementptr inbounds nuw i8, ptr %0, i64 16
  %7 = trunc i16 %3 to i8
  %8 = and i8 %7, 56
  %9 = or disjoint i8 %8, 1
  %10 = load i32, ptr %4, align 4
  %11 = icmp eq i32 %10, 0
  br i1 %11, label %12, label %event_changelist_get_or_construct.exit

12:                                               ; preds = %5
  %13 = getelementptr inbounds nuw i8, ptr %0, i64 24
  %14 = load i32, ptr %13, align 8
  %15 = getelementptr inbounds nuw i8, ptr %0, i64 28
  %16 = load i32, ptr %15, align 4
  %17 = icmp eq i32 %14, %16
  %.pre26.i = load ptr, ptr %6, align 8
  br i1 %17, label %18, label %event_changelist_get_or_construct.exit.thread23

18:                                               ; preds = %12
  %19 = icmp slt i32 %14, 64
  %20 = shl nuw nsw i32 %14, 1
  %.09.i.i = select i1 %19, i32 64, i32 %20
  %21 = zext nneg i32 %.09.i.i to i64
  %22 = mul nuw nsw i64 %21, 12
  %23 = tail call ptr @event_mm_realloc_(ptr noundef %.pre26.i, i64 noundef %22) #7
  %24 = icmp eq ptr %23, null
  br i1 %24, label %event_changelist_get_or_construct.exit.thread, label %event_changelist_grow.exit.i, !prof !6

event_changelist_grow.exit.i:                     ; preds = %18
  store ptr %23, ptr %6, align 8
  store i32 %.09.i.i, ptr %15, align 4
  %.pre.i = load i32, ptr %13, align 8
  br label %event_changelist_get_or_construct.exit.thread23

event_changelist_get_or_construct.exit.thread23:  ; preds = %12, %event_changelist_grow.exit.i
  %25 = phi ptr [ %.pre26.i, %12 ], [ %23, %event_changelist_grow.exit.i ]
  %26 = phi i32 [ %14, %12 ], [ %.pre.i, %event_changelist_grow.exit.i ]
  %27 = add nsw i32 %26, 1
  store i32 %27, ptr %13, align 8
  %28 = sext i32 %26 to i64
  %29 = getelementptr inbounds %struct.event_change, ptr %25, i64 %28
  store i32 %27, ptr %4, align 4
  %30 = getelementptr inbounds nuw i8, ptr %29, i64 4
  store i64 0, ptr %30, align 4
  store i32 %1, ptr %29, align 4
  store i16 %2, ptr %30, align 4
  br label %35

event_changelist_get_or_construct.exit:           ; preds = %5
  %31 = load ptr, ptr %6, align 8
  %32 = sext i32 %10 to i64
  %33 = getelementptr %struct.event_change, ptr %31, i64 %32
  %34 = getelementptr i8, ptr %33, i64 -12
  %.not = icmp eq ptr %34, null
  br i1 %.not, label %event_changelist_get_or_construct.exit.thread, label %35

35:                                               ; preds = %event_changelist_get_or_construct.exit.thread23, %event_changelist_get_or_construct.exit
  %.1.i26 = phi ptr [ %29, %event_changelist_get_or_construct.exit.thread23 ], [ %34, %event_changelist_get_or_construct.exit ]
  %36 = and i16 %3, 10
  %.not18 = icmp eq i16 %36, 0
  br i1 %.not18, label %39, label %37

37:                                               ; preds = %35
  %38 = getelementptr inbounds nuw i8, ptr %.1.i26, i64 6
  store i8 %9, ptr %38, align 2
  br label %39

39:                                               ; preds = %37, %35
  %40 = and i16 %3, 4
  %.not19 = icmp eq i16 %40, 0
  br i1 %.not19, label %43, label %41

41:                                               ; preds = %39
  %42 = getelementptr inbounds nuw i8, ptr %.1.i26, i64 7
  store i8 %9, ptr %42, align 1
  br label %43

43:                                               ; preds = %41, %39
  %44 = and i16 %3, 128
  %.not20 = icmp eq i16 %44, 0
  br i1 %.not20, label %event_changelist_get_or_construct.exit.thread, label %45

45:                                               ; preds = %43
  %46 = getelementptr inbounds nuw i8, ptr %.1.i26, i64 8
  store i8 %9, ptr %46, align 4
  br label %event_changelist_get_or_construct.exit.thread

event_changelist_get_or_construct.exit.thread:    ; preds = %18, %43, %45, %event_changelist_get_or_construct.exit
  %.0 = phi i32 [ -1, %event_changelist_get_or_construct.exit ], [ 0, %45 ], [ 0, %43 ], [ -1, %18 ]
  ret i32 %.0
}